(dp0
I0
(I0
F0.0
F192.0
F288.0
tp1
sI1
(F192.0
F0.0
F192.0
F288.0
tp2
sI2
(F384.0
F0.0
F192.0
F288.0
tp3
sI3
(F576.0
F0.0
F192.0
F288.0
tp4
sI4
(F768.0
F0.0
F192.0
F288.0
tp5
sI5
(F960.0
F0.0
F192.0
F288.0
tp6
sI6
(F1152.0
F0.0
F192.0
F288.0
tp7
sI7
(F1344.0
F0.0
F192.0
F288.0
tp8
sI8
(F1536.0
F0.0
F192.0
F288.0
tp9
sI9
(F1728.0
F0.0
F192.0
F288.0
tp10
s.